target datalayout = "e-m:e-p270:32:32-p271:32:32-p272:64:64-i64:64-i128:128-f80:128-n8:16:32:64-S128"
target triple = "x86_64-pc-linux-gnu"

%"class.std::vector.15" = type { %"struct.std::_Vector_base.16" }
%"struct.std::_Vector_base.16" = type { %"struct.std::_Vector_base<Variable *, std::allocator<Variable *>>::_Vector_impl" }
%"struct.std::_Vector_base<Variable *, std::allocator<Variable *>>::_Vector_impl" = type { %"struct.std::_Vector_base<Variable *, std::allocator<Variable *>>::_Vector_impl_data" }
%"struct.std::_Vector_base<Variable *, std::allocator<Variable *>>::_Vector_impl_data" = type { ptr, ptr, ptr }
%"class.std::vector" = type { %"struct.std::_Vector_base" }
%"struct.std::_Vector_base" = type { %"struct.std::_Vector_base<unsigned int, std::allocator<unsigned int>>::_Vector_impl" }
%"struct.std::_Vector_base<unsigned int, std::allocator<unsigned int>>::_Vector_impl" = type { %"struct.std::_Vector_base<unsigned int, std::allocator<unsigned int>>::_Vector_impl_data" }
%"struct.std::_Vector_base<unsigned int, std::allocator<unsigned int>>::_Vector_impl_data" = type { ptr, ptr, ptr }
%class.ArrayVariable = type { %class.Variable, ptr, ptr, %"class.std::vector", %"class.std::vector.27", %"class.std::vector.27" }
%class.Variable = type { ptr, %"class.std::vector.15", %"class.std::__cxx11::basic_string", ptr, ptr, i8, i8, i8, i8, i8, i8, ptr, i8, %class.CVQualifiers }
%"class.std::__cxx11::basic_string" = type { %"struct.std::__cxx11::basic_string<char>::_Alloc_hider", i64, %union.anon }
%"struct.std::__cxx11::basic_string<char>::_Alloc_hider" = type { ptr }
%union.anon = type { i64, [8 x i8] }
%class.CVQualifiers = type { ptr, i8, i8, %"class.std::vector.23", %"class.std::vector.23" }
%"class.std::vector.23" = type { %"struct.std::_Bvector_base" }
%"struct.std::_Bvector_base" = type { %"struct.std::_Bvector_base<std::allocator<bool>>::_Bvector_impl" }
%"struct.std::_Bvector_base<std::allocator<bool>>::_Bvector_impl" = type { %"struct.std::_Bvector_base<std::allocator<bool>>::_Bvector_impl_data" }
%"struct.std::_Bvector_base<std::allocator<bool>>::_Bvector_impl_data" = type { %"struct.std::_Bit_iterator", %"struct.std::_Bit_iterator", ptr }
%"struct.std::_Bit_iterator" = type { %"struct.std::_Bit_iterator_base.base", [4 x i8] }
%"struct.std::_Bit_iterator_base.base" = type <{ ptr, i32 }>
%"class.std::vector.27" = type { %"struct.std::_Vector_base.28" }
%"struct.std::_Vector_base.28" = type { %"struct.std::_Vector_base<const Expression *, std::allocator<const Expression *>>::_Vector_impl" }
%"struct.std::_Vector_base<const Expression *, std::allocator<const Expression *>>::_Vector_impl" = type { %"struct.std::_Vector_base<const Expression *, std::allocator<const Expression *>>::_Vector_impl_data" }
%"struct.std::_Vector_base<const Expression *, std::allocator<const Expression *>>::_Vector_impl_data" = type { ptr, ptr, ptr }

@_ZTI8Variable = external constant ptr
@_ZTI13ArrayVariable = dso_local constant { ptr, ptr, ptr } { ptr getelementptr inbounds (ptr, ptr @_ZTVN10__cxxabiv120__si_class_type_infoE, i64 2), ptr @_ZTS13ArrayVariable, ptr @_ZTI8Variable }, align 8

; Function Attrs: mustprogress nounwind uwtable
define linkonce_odr dso_local noundef nonnull align 8 dereferenceable(8) ptr @_ZNKSt6vectorIPK10ExpressionSaIS2_EEixEm(ptr noundef nonnull align 8 dereferenceable(24) %0, i64 noundef %1) #5 comdat align 2 {
  %3 = alloca ptr, align 8
  %4 = alloca i64, align 8
  store ptr %0, ptr %3, align 8
  store i64 %1, ptr %4, align 8
  %5 = load ptr, ptr %3, align 8
  %6 = getelementptr inbounds %"struct.std::_Vector_base.28", ptr %5, i32 0, i32 0
  %7 = getelementptr inbounds %"struct.std::_Vector_base<const Expression *, std::allocator<const Expression *>>::_Vector_impl_data", ptr %6, i32 0, i32 0
  %8 = load ptr, ptr %7, align 8
  %9 = load i64, ptr %4, align 8
  %10 = getelementptr inbounds ptr, ptr %8, i64 %9
  ret ptr %10
}

; Function Attrs: mustprogress nounwind uwtable
define linkonce_odr dso_local noundef i64 @_ZNKSt6vectorIPK10ExpressionSaIS2_EE4sizeEv(ptr noundef nonnull align 8 dereferenceable(24) %0) #5 comdat align 2 {
  %2 = alloca ptr, align 8
  store ptr %0, ptr %2, align 8
  %3 = load ptr, ptr %2, align 8
  %4 = getelementptr inbounds %"struct.std::_Vector_base.28", ptr %3, i32 0, i32 0
  %5 = getelementptr inbounds %"struct.std::_Vector_base<const Expression *, std::allocator<const Expression *>>::_Vector_impl_data", ptr %4, i32 0, i32 1
  %6 = load ptr, ptr %5, align 8
  %7 = getelementptr inbounds %"struct.std::_Vector_base.28", ptr %3, i32 0, i32 0
  %8 = getelementptr inbounds %"struct.std::_Vector_base<const Expression *, std::allocator<const Expression *>>::_Vector_impl_data", ptr %7, i32 0, i32 0
  %9 = load ptr, ptr %8, align 8
  %10 = ptrtoint ptr %6 to i64
  %11 = ptrtoint ptr %9 to i64
  %12 = sub i64 %10, %11
  %13 = sdiv exact i64 %12, 8
  ret i64 %13
}

; Function Attrs: mustprogress uwtable
define dso_local noundef zeroext i1 @_ZNK13ArrayVariable10is_variantEPK8Variable(ptr noundef nonnull align 8 dereferenceable(288) %0, ptr noundef %1) #4 align 2 {
  %3 = alloca i1, align 1
  %4 = alloca ptr, align 8
  %5 = alloca ptr, align 8
  %6 = alloca ptr, align 8
  %7 = alloca i64, align 8
  %8 = alloca ptr, align 8
  %9 = alloca ptr, align 8
  store ptr %0, ptr %4, align 8
  store ptr %1, ptr %5, align 8
  %10 = load ptr, ptr %4, align 8
  %11 = load ptr, ptr %5, align 8
  %12 = getelementptr inbounds %class.Variable, ptr %11, i32 0, i32 12
  %13 = load i8, ptr %12, align 8
  %14 = trunc i8 %13 to i1
  br i1 %14, label %15, label %77

15:                                               ; preds = %2
  %16 = load ptr, ptr %5, align 8
  %17 = icmp eq ptr %16, null
  br i1 %17, label %20, label %18

18:                                               ; preds = %15
  %19 = call ptr @__dynamic_cast(ptr %16, ptr @_ZTI8Variable, ptr @_ZTI13ArrayVariable, i64 0) #3
  br label %21

20:                                               ; preds = %15
  br label %21

21:                                               ; preds = %20, %18
  %22 = phi ptr [ %19, %18 ], [ null, %20 ]
  store ptr %22, ptr %6, align 8
  %23 = load ptr, ptr %6, align 8
  %24 = getelementptr inbounds %class.ArrayVariable, ptr %23, i32 0, i32 1
  %25 = load ptr, ptr %24, align 8
  %26 = icmp ne ptr %25, null
  br i1 %26, label %27, label %76

27:                                               ; preds = %21
  %28 = getelementptr inbounds %class.ArrayVariable, ptr %10, i32 0, i32 1
  %29 = load ptr, ptr %28, align 8
  %30 = load ptr, ptr %6, align 8
  %31 = getelementptr inbounds %class.ArrayVariable, ptr %30, i32 0, i32 1
  %32 = load ptr, ptr %31, align 8
  %33 = icmp eq ptr %29, %32
  br i1 %33, label %34, label %76

34:                                               ; preds = %27
  %35 = load ptr, ptr %6, align 8
  %36 = getelementptr inbounds %class.ArrayVariable, ptr %35, i32 0, i32 4
  %37 = call noundef i64 @_ZNKSt6vectorIPK10ExpressionSaIS2_EE4sizeEv(ptr noundef nonnull align 8 dereferenceable(24) %36) #3
  %38 = getelementptr inbounds %class.ArrayVariable, ptr %10, i32 0, i32 4
  %39 = call noundef i64 @_ZNKSt6vectorIPK10ExpressionSaIS2_EE4sizeEv(ptr noundef nonnull align 8 dereferenceable(24) %38) #3
  %40 = icmp eq i64 %37, %39
  br i1 %40, label %41, label %76

41:                                               ; preds = %34
  store i64 0, ptr %7, align 8
  br label %42

42:                                               ; preds = %72, %41
  %43 = load i64, ptr %7, align 8
  %44 = getelementptr inbounds %class.ArrayVariable, ptr %10, i32 0, i32 4
  %45 = call noundef i64 @_ZNKSt6vectorIPK10ExpressionSaIS2_EE4sizeEv(ptr noundef nonnull align 8 dereferenceable(24) %44) #3
  %46 = icmp ult i64 %43, %45
  br i1 %46, label %47, label %75

47:                                               ; preds = %42
  %48 = getelementptr inbounds %class.ArrayVariable, ptr %10, i32 0, i32 4
  %49 = load i64, ptr %7, align 8
  %50 = call noundef nonnull align 8 dereferenceable(8) ptr @_ZNKSt6vectorIPK10ExpressionSaIS2_EEixEm(ptr noundef nonnull align 8 dereferenceable(24) %48, i64 noundef %49) #3
  %51 = load ptr, ptr %50, align 8
  store ptr %51, ptr %8, align 8
  %52 = load ptr, ptr %6, align 8
  %53 = getelementptr inbounds %class.ArrayVariable, ptr %52, i32 0, i32 4
  %54 = load i64, ptr %7, align 8
  %55 = call noundef nonnull align 8 dereferenceable(8) ptr @_ZNKSt6vectorIPK10ExpressionSaIS2_EEixEm(ptr noundef nonnull align 8 dereferenceable(24) %53, i64 noundef %54) #3
  %56 = load ptr, ptr %55, align 8
  store ptr %56, ptr %9, align 8
  %57 = load ptr, ptr %8, align 8
  %58 = call noundef i32 @_ZL18count_expr_key_varPK10Expression(ptr noundef %57)
  %59 = icmp ne i32 %58, 1
  br i1 %59, label %70, label %60

60:                                               ; preds = %47
  %61 = load ptr, ptr %9, align 8
  %62 = call noundef i32 @_ZL18count_expr_key_varPK10Expression(ptr noundef %61)
  %63 = icmp ne i32 %62, 1
  br i1 %63, label %70, label %64

64:                                               ; preds = %60
  %65 = load ptr, ptr %8, align 8
  %66 = call noundef ptr @_ZL17find_expr_key_varPK10Expression(ptr noundef %65)
  %67 = load ptr, ptr %9, align 8
  %68 = call noundef ptr @_ZL17find_expr_key_varPK10Expression(ptr noundef %67)
  %69 = icmp ne ptr %66, %68
  br i1 %69, label %70, label %71

70:                                               ; preds = %64, %60, %47
  store i1 false, ptr %3, align 1
  br label %78

71:                                               ; preds = %64
  br label %72

72:                                               ; preds = %71
  %73 = load i64, ptr %7, align 8
  %74 = add i64 %73, 1
  store i64 %74, ptr %7, align 8
  br label %42, !llvm.loop !19

75:                                               ; preds = %42
  store i1 true, ptr %3, align 1
  br label %78

76:                                               ; preds = %34, %27, %21
  br label %77

77:                                               ; preds = %76, %2
  store i1 false, ptr %3, align 1
  br label %78

78:                                               ; preds = %77, %75, %70
  %79 = load i1, ptr %3, align 1
  ret i1 %79
}