; Function Attrs: mustprogress uwtable
define dso_local noundef zeroext i1 @_ZNK13ArrayVariable10is_variantEPK8Variable(ptr nocapture noundef nonnull readonly align 8 dereferenceable(288) %0, ptr noundef readonly %1) local_unnamed_addr #3 align 2 {
  %3 = getelementptr inbounds i8, ptr %1, i64 96
  %4 = load i8, ptr %3, align 8
  %5 = and i8 %4, 1
  %.not = icmp eq i8 %5, 0
  br i1 %.not, label %.loopexit, label %6

6:                                                ; preds = %2
  %7 = tail call ptr @__dynamic_cast(ptr nonnull %1, ptr nonnull @_ZTI8Variable, ptr nonnull @_ZTI13ArrayVariable, i64 0) #19
  %8 = getelementptr inbounds i8, ptr %7, i64 200
  %9 = load ptr, ptr %8, align 8
  %.not18 = icmp ne ptr %9, null
  %10 = getelementptr inbounds i8, ptr %0, i64 200
  %11 = load ptr, ptr %10, align 8
  %12 = icmp eq ptr %11, %9
  %or.cond = select i1 %.not18, i1 %12, i1 false
  br i1 %or.cond, label %13, label %.loopexit

13:                                               ; preds = %6
  %14 = getelementptr inbounds i8, ptr %7, i64 240
  %15 = getelementptr inbounds i8, ptr %7, i64 248
  %16 = load ptr, ptr %15, align 8
  %17 = load ptr, ptr %14, align 8
  %18 = ptrtoint ptr %16 to i64
  %19 = ptrtoint ptr %17 to i64
  %20 = sub i64 %18, %19
  %21 = getelementptr inbounds i8, ptr %0, i64 240
  %22 = getelementptr inbounds i8, ptr %0, i64 248
  %23 = load ptr, ptr %22, align 8
  %24 = load ptr, ptr %21, align 8
  %25 = ptrtoint ptr %23 to i64
  %26 = ptrtoint ptr %24 to i64
  %27 = sub i64 %25, %26
  %28 = icmp eq i64 %20, %27
  br i1 %28, label %.preheader, label %.loopexit

.preheader:                                       ; preds = %13
  %.not31 = icmp eq ptr %23, %24
  br i1 %.not31, label %.loopexit, label %.lr.ph

29:                                               ; preds = %47
  %30 = add nuw i64 %.01524, 1
  %31 = load ptr, ptr %22, align 8
  %32 = load ptr, ptr %21, align 8
  %33 = ptrtoint ptr %31 to i64
  %34 = ptrtoint ptr %32 to i64
  %35 = sub i64 %33, %34
  %36 = ashr exact i64 %35, 3
  %37 = icmp ult i64 %30, %36
  br i1 %37, label %.lr.ph, label %.loopexit, !llvm.loop !19

.lr.ph:                                           ; preds = %.preheader, %29
  %38 = phi ptr [ %32, %29 ], [ %24, %.preheader ]
  %.01524 = phi i64 [ %30, %29 ], [ 0, %.preheader ]
  %39 = getelementptr inbounds ptr, ptr %38, i64 %.01524
  %40 = load ptr, ptr %39, align 8
  %41 = load ptr, ptr %14, align 8
  %42 = getelementptr inbounds ptr, ptr %41, i64 %.01524
  %43 = load ptr, ptr %42, align 8
  %44 = tail call fastcc noundef i32 @_ZL18count_expr_key_varPK10Expression(ptr noundef %40)
  %.not19 = icmp eq i32 %44, 1
  br i1 %.not19, label %45, label %.loopexit

45:                                               ; preds = %.lr.ph
  %46 = tail call fastcc noundef i32 @_ZL18count_expr_key_varPK10Expression(ptr noundef %43)
  %.not20 = icmp eq i32 %46, 1
  br i1 %.not20, label %47, label %.loopexit

47:                                               ; preds = %45
  %48 = tail call fastcc noundef ptr @_ZL17find_expr_key_varPK10Expression(ptr noundef %40)
  %49 = tail call fastcc noundef ptr @_ZL17find_expr_key_varPK10Expression(ptr noundef %43)
  %.not21 = icmp eq ptr %48, %49
  br i1 %.not21, label %29, label %.loopexit

.loopexit:                                        ; preds = %47, %45, %.lr.ph, %29, %.preheader, %2, %13, %6
  %.0 = phi i1 [ false, %6 ], [ false, %13 ], [ false, %2 ], [ true, %.preheader ], [ false, %47 ], [ false, %45 ], [ false, %.lr.ph ], [ true, %29 ]
  ret i1 %.0
}